; Function Attrs: nounwind uwtable
define ptr @l___private_Init_Data_Int_Linear_0__Int_Linear_dvd__elim__cert_match__1_splitter___rarg(ptr noundef %0, ptr noundef %1, ptr noundef %2) #1 {
  %4 = ptrtoint ptr %0 to i64
  %5 = and i64 %4, 1
  %.not.i27 = icmp eq i64 %5, 0
  br i1 %.not.i27, label %9, label %6

6:                                                ; preds = %3
  %7 = lshr i64 %4, 1
  %8 = trunc i64 %7 to i32
  br label %lean_obj_tag.exit

9:                                                ; preds = %3
  %10 = getelementptr i8, ptr %0, i64 4
  %.val.i = load i32, ptr %10, align 4
  %11 = lshr i32 %.val.i, 24
  br label %lean_obj_tag.exit

lean_obj_tag.exit:                                ; preds = %6, %9
  %.0.i = phi i32 [ %8, %6 ], [ %11, %9 ]
  %12 = icmp eq i32 %.0.i, 0
  br i1 %12, label %13, label %24

13:                                               ; preds = %lean_obj_tag.exit
  %14 = ptrtoint ptr %1 to i64
  %15 = and i64 %14, 1
  %.not40 = icmp eq i64 %15, 0
  br i1 %.not40, label %16, label %lean_dec.exit20

16:                                               ; preds = %13
  %17 = load i32, ptr %1, align 4, !tbaa !6
  %18 = icmp sgt i32 %17, 1
  br i1 %18, label %19, label %21, !prof !5

19:                                               ; preds = %16
  %20 = add nsw i32 %17, -1
  store i32 %20, ptr %1, align 4, !tbaa !6
  br label %lean_dec.exit20

21:                                               ; preds = %16
  %.not.i = icmp eq i32 %17, 0
  br i1 %.not.i, label %lean_dec.exit20, label %22

22:                                               ; preds = %21
  tail call void @lean_dec_ref_cold(ptr noundef nonnull %1) #5
  br label %lean_dec.exit20

lean_dec.exit20:                                  ; preds = %22, %21, %19, %13
  %23 = tail call ptr @lean_apply_2(ptr noundef %2, ptr noundef %0, ptr noundef nonnull inttoptr (i64 1 to ptr)) #5
  br label %72

24:                                               ; preds = %lean_obj_tag.exit
  %25 = ptrtoint ptr %2 to i64
  %26 = and i64 %25, 1
  %.not = icmp eq i64 %26, 0
  br i1 %.not, label %27, label %lean_dec.exit19

27:                                               ; preds = %24
  %28 = load i32, ptr %2, align 4, !tbaa !6
  %29 = icmp sgt i32 %28, 1
  br i1 %29, label %30, label %32, !prof !5

30:                                               ; preds = %27
  %31 = add nsw i32 %28, -1
  store i32 %31, ptr %2, align 4, !tbaa !6
  br label %lean_dec.exit19

32:                                               ; preds = %27
  %.not.i23 = icmp eq i32 %28, 0
  br i1 %.not.i23, label %lean_dec.exit19, label %33

33:                                               ; preds = %32
  tail call void @lean_dec_ref_cold(ptr noundef nonnull %2) #5
  br label %lean_dec.exit19

lean_dec.exit19:                                  ; preds = %33, %32, %30, %24
  %34 = getelementptr inbounds nuw i8, ptr %0, i64 8
  %35 = load ptr, ptr %34, align 8, !tbaa !11
  %36 = ptrtoint ptr %35 to i64
  %37 = and i64 %36, 1
  %.not36 = icmp eq i64 %37, 0
  br i1 %.not36, label %38, label %lean_inc.exit22

38:                                               ; preds = %lean_dec.exit19
  %.val.i28 = load i32, ptr %35, align 4, !tbaa !6
  %39 = icmp sgt i32 %.val.i28, 0
  br i1 %39, label %40, label %42, !prof !5

40:                                               ; preds = %38
  %41 = add nuw i32 %.val.i28, 1
  store i32 %41, ptr %35, align 4, !tbaa !6
  br label %lean_inc.exit22

42:                                               ; preds = %38
  %.not.i29 = icmp eq i32 %.val.i28, 0
  br i1 %.not.i29, label %lean_inc.exit22, label %43

43:                                               ; preds = %42
  tail call void @lean_inc_ref_cold(ptr noundef nonnull %35) #5
  br label %lean_inc.exit22

lean_inc.exit22:                                  ; preds = %43, %42, %40, %lean_dec.exit19
  %44 = getelementptr inbounds nuw i8, ptr %0, i64 16
  %45 = load ptr, ptr %44, align 8, !tbaa !11
  %46 = ptrtoint ptr %45 to i64
  %47 = and i64 %46, 1
  %.not37 = icmp eq i64 %47, 0
  br i1 %.not37, label %48, label %lean_inc.exit21

48:                                               ; preds = %lean_inc.exit22
  %.val.i30 = load i32, ptr %45, align 4, !tbaa !6
  %49 = icmp sgt i32 %.val.i30, 0
  br i1 %49, label %50, label %52, !prof !5

50:                                               ; preds = %48
  %51 = add nuw i32 %.val.i30, 1
  store i32 %51, ptr %45, align 4, !tbaa !6
  br label %lean_inc.exit21

52:                                               ; preds = %48
  %.not.i31 = icmp eq i32 %.val.i30, 0
  br i1 %.not.i31, label %lean_inc.exit21, label %53

53:                                               ; preds = %52
  tail call void @lean_inc_ref_cold(ptr noundef nonnull %45) #5
  br label %lean_inc.exit21

lean_inc.exit21:                                  ; preds = %53, %52, %50, %lean_inc.exit22
  %54 = getelementptr inbounds nuw i8, ptr %0, i64 24
  %55 = load ptr, ptr %54, align 8, !tbaa !11
  %56 = ptrtoint ptr %55 to i64
  %57 = and i64 %56, 1
  %.not38 = icmp eq i64 %57, 0
  br i1 %.not38, label %58, label %lean_inc.exit

58:                                               ; preds = %lean_inc.exit21
  %.val.i33 = load i32, ptr %55, align 4, !tbaa !6
  %59 = icmp sgt i32 %.val.i33, 0
  br i1 %59, label %60, label %62, !prof !5

60:                                               ; preds = %58
  %61 = add nuw i32 %.val.i33, 1
  store i32 %61, ptr %55, align 4, !tbaa !6
  br label %lean_inc.exit

62:                                               ; preds = %58
  %.not.i34 = icmp eq i32 %.val.i33, 0
  br i1 %.not.i34, label %lean_inc.exit, label %63

63:                                               ; preds = %62
  tail call void @lean_inc_ref_cold(ptr noundef nonnull %55) #5
  br label %lean_inc.exit

lean_inc.exit:                                    ; preds = %63, %62, %60, %lean_inc.exit21
  br i1 %.not.i27, label %64, label %lean_dec.exit

64:                                               ; preds = %lean_inc.exit
  %65 = load i32, ptr %0, align 4, !tbaa !6
  %66 = icmp sgt i32 %65, 1
  br i1 %66, label %67, label %69, !prof !5

67:                                               ; preds = %64
  %68 = add nsw i32 %65, -1
  store i32 %68, ptr %0, align 4, !tbaa !6
  br label %lean_dec.exit

69:                                               ; preds = %64
  %.not.i25 = icmp eq i32 %65, 0
  br i1 %.not.i25, label %lean_dec.exit, label %70

70:                                               ; preds = %69
  tail call void @lean_dec_ref_cold(ptr noundef nonnull %0) #5
  br label %lean_dec.exit

lean_dec.exit:                                    ; preds = %70, %69, %67, %lean_inc.exit
  %71 = tail call ptr @lean_apply_3(ptr noundef %1, ptr noundef %35, ptr noundef %45, ptr noundef %55) #5
  br label %72

72:                                               ; preds = %lean_dec.exit, %lean_dec.exit20
  %.0 = phi ptr [ %23, %lean_dec.exit20 ], [ %71, %lean_dec.exit ]
  ret ptr %.0
}